ccopy_reg
_reconstructor
p1
(cdjango.http.request
QueryDict
p2
c__builtin__
dict
p3
(dp4
Vstart_input
p5
(lp6
V2000-01-01
p7
asVstop_input
p8
(lp9
V2015-01-01
p10
asVgages_input
p11
(lp12
V11477000
p13
asVsubmit_button
p14
(lp15
VAnalyze recessions
p16
asVlag_start_input
p17
(lp18
V0
asVantecedent_moisture_input
p19
(lp20
V1
asVcsrfmiddlewaretoken
p21
(lp22
VFaGwcrd5qV3sOuhlpyROzLzhCGlYk0jf
p23
asVrec_sense_input
p24
(lp25
V1
asVmin_length_input
p26
(lp27
V4
astRp28
(dp29
S'_encoding'
p30
S'utf-8'
p31
sS'_data'
p32
(dp33
g8
g9
sg5
g6
sg17
g18
sg11
g12
sg14
g15
sg19
g20
sg21
g22
sg24
g25
sg26
g27
ssS'_mutable'
p34
I00
sb.