(dp1
V11476500
p2
(cnumpy.core.multiarray
_reconstruct
p3
(cnumpy
ndarray
p4
(I0
tS'b'
tRp5
(I1
(I106
tcnumpy
dtype
p6
(S'O8'
I0
I1
tRp7
(I3
S'|'
NNNI-1
I-1
I63
tbI00
(lp8
cpandas.tslib
Timestamp
p9
(I947980800000000000
NNtRp10
ag9
(I949363200000000000
NNtRp11
ag9
(I949795200000000000
NNtRp12
ag9
(I950486400000000000
NNtRp13
ag9
(I979171200000000000
NNtRp14
ag9
(I983059200000000000
NNtRp15
ag9
(I983750400000000000
NNtRp16
ag9
(I985478400000000000
NNtRp17
ag9
(I1007683200000000000
NNtRp18
ag9
(I1009065600000000000
NNtRp19
ag9
(I1010275200000000000
NNtRp20
ag9
(I1012089600000000000
NNtRp21
ag9
(I1013126400000000000
NNtRp22
ag9
(I1014163200000000000
NNtRp23
ag9
(I1015718400000000000
NNtRp24
ag9
(I1016928000000000000
NNtRp25
ag9
(I1036972800000000000
NNtRp26
ag9
(I1039996800000000000
NNtRp27
ag9
(I1040428800000000000
NNtRp28
ag9
(I1041292800000000000
NNtRp29
ag9
(I1043452800000000000
NNtRp30
ag9
(I1045353600000000000
NNtRp31
ag9
(I1047686400000000000
NNtRp32
ag9
(I1068422400000000000
NNtRp33
ag9
(I1068940800000000000
NNtRp34
ag9
(I1071360000000000000
NNtRp35
ag9
(I1071878400000000000
NNtRp36
ag9
(I1072310400000000000
NNtRp37
ag9
(I1072915200000000000
NNtRp38
ag9
(I1073692800000000000
NNtRp39
ag9
(I1082592000000000000
NNtRp40
ag9
(I1098835200000000000
NNtRp41
ag9
(I1102464000000000000
NNtRp42
ag9
(I1105401600000000000
NNtRp43
ag9
(I1106956800000000000
NNtRp44
ag9
(I1108339200000000000
NNtRp45
ag9
(I1108944000000000000
NNtRp46
ag9
(I1113004800000000000
NNtRp47
ag9
(I1115683200000000000
NNtRp48
ag9
(I1116460800000000000
NNtRp49
ag9
(I1135987200000000000
NNtRp50
ag9
(I1137801600000000000
NNtRp51
ag9
(I1138838400000000000
NNtRp52
ag9
(I1142553600000000000
NNtRp53
ag9
(I1148428800000000000
NNtRp54
ag9
(I1163721600000000000
NNtRp55
ag9
(I1166140800000000000
NNtRp56
ag9
(I1166745600000000000
NNtRp57
ag9
(I1167177600000000000
NNtRp58
ag9
(I1167868800000000000
NNtRp59
ag9
(I1178323200000000000
NNtRp60
ag9
(I1192838400000000000
NNtRp61
ag9
(I1196726400000000000
NNtRp62
ag9
(I1198108800000000000
NNtRp63
ag9
(I1198972800000000000
NNtRp64
ag9
(I1199836800000000000
NNtRp65
ag9
(I1201996800000000000
NNtRp66
ag9
(I1203897600000000000
NNtRp67
ag9
(I1225756800000000000
NNtRp68
ag9
(I1230508800000000000
NNtRp69
ag9
(I1230940800000000000
NNtRp70
ag9
(I1237248000000000000
NNtRp71
ag9
(I1241481600000000000
NNtRp72
ag9
(I1255564800000000000
NNtRp73
ag9
(I1260921600000000000
NNtRp74
ag9
(I1261440000000000000
NNtRp75
ag9
(I1262390400000000000
NNtRp76
ag9
(I1263340800000000000
NNtRp77
ag9
(I1264032000000000000
NNtRp78
ag9
(I1264464000000000000
NNtRp79
ag9
(I1268438400000000000
NNtRp80
ag9
(I1270425600000000000
NNtRp81
ag9
(I1271116800000000000
NNtRp82
ag9
(I1272412800000000000
NNtRp83
ag9
(I1273536000000000000
NNtRp84
ag9
(I1275004800000000000
NNtRp85
ag9
(I1275696000000000000
NNtRp86
ag9
(I1288310400000000000
NNtRp87
ag9
(I1290902400000000000
NNtRp88
ag9
(I1293580800000000000
NNtRp89
ag9
(I1294963200000000000
NNtRp90
ag9
(I1296432000000000000
NNtRp91
ag9
(I1301097600000000000
NNtRp92
ag9
(I1317859200000000000
NNtRp93
ag9
(I1327276800000000000
NNtRp94
ag9
(I1329177600000000000
NNtRp95
ag9
(I1330646400000000000
NNtRp96
ag9
(I1331942400000000000
NNtRp97
ag9
(I1332374400000000000
NNtRp98
ag9
(I1334275200000000000
NNtRp99
ag9
(I1335484800000000000
NNtRp100
ag9
(I1353456000000000000
NNtRp101
ag9
(I1354665600000000000
NNtRp102
ag9
(I1356480000000000000
NNtRp103
ag9
(I1358985600000000000
NNtRp104
ag9
(I1362614400000000000
NNtRp105
ag9
(I1363824000000000000
NNtRp106
ag9
(I1380585600000000000
NNtRp107
ag9
(I1384992000000000000
NNtRp108
ag9
(I1391990400000000000
NNtRp109
ag9
(I1392508800000000000
NNtRp110
ag9
(I1394064000000000000
NNtRp111
ag9
(I1394409600000000000
NNtRp112
ag9
(I1396310400000000000
NNtRp113
ag9
(I1414281600000000000
NNtRp114
ag9
(I1416614400000000000
NNtRp115
atbg3
(g4
(I0
tS'b'
tRp116
(I1
(I106
tg7
I00
(lp117
g9
(I948240000000000000
NNtRp118
ag9
(I949622400000000000
NNtRp119
ag9
(I950140800000000000
NNtRp120
ag9
(I951091200000000000
NNtRp121
ag9
(I980121600000000000
NNtRp122
ag9
(I983577600000000000
NNtRp123
ag9
(I985305600000000000
NNtRp124
ag9
(I986428800000000000
NNtRp125
ag9
(I1008115200000000000
NNtRp126
ag9
(I1009411200000000000
NNtRp127
ag9
(I1011484800000000000
NNtRp128
ag9
(I1012953600000000000
NNtRp129
ag9
(I1013990400000000000
NNtRp130
ag9
(I1015286400000000000
NNtRp131
ag9
(I1015977600000000000
NNtRp132
ag9
(I1018310400000000000
NNtRp133
ag9
(I1038614400000000000
NNtRp134
ag9
(I1040256000000000000
NNtRp135
ag9
(I1040774400000000000
NNtRp136
ag9
(I1042070400000000000
NNtRp137
ag9
(I1043971200000000000
NNtRp138
ag9
(I1046390400000000000
NNtRp139
ag9
(I1048032000000000000
NNtRp140
ag9
(I1068768000000000000
NNtRp141
ag9
(I1069977600000000000
NNtRp142
ag9
(I1071792000000000000
NNtRp143
ag9
(I1072137600000000000
NNtRp144
ag9
(I1072569600000000000
NNtRp145
ag9
(I1073433600000000000
NNtRp146
ag9
(I1074038400000000000
NNtRp147
ag9
(I1083888000000000000
NNtRp148
ag9
(I1099353600000000000
NNtRp149
ag9
(I1103932800000000000
NNtRp150
ag9
(I1106611200000000000
NNtRp151
ag9
(I1108166400000000000
NNtRp152
ag9
(I1108684800000000000
NNtRp153
ag9
(I1109376000000000000
NNtRp154
ag9
(I1114300800000000000
NNtRp155
ag9
(I1116288000000000000
NNtRp156
ag9
(I1118102400000000000
NNtRp157
ag9
(I1136851200000000000
NNtRp158
ag9
(I1138233600000000000
NNtRp159
ag9
(I1140825600000000000
NNtRp160
ag9
(I1143072000000000000
NNtRp161
ag9
(I1149379200000000000
NNtRp162
ag9
(I1164067200000000000
NNtRp163
ag9
(I1166572800000000000
NNtRp164
ag9
(I1167004800000000000
NNtRp165
ag9
(I1167696000000000000
NNtRp166
ag9
(I1169251200000000000
NNtRp167
ag9
(I1179619200000000000
NNtRp168
ag9
(I1194566400000000000
NNtRp169
ag9
(I1197763200000000000
NNtRp170
ag9
(I1198713600000000000
NNtRp171
ag9
(I1199232000000000000
NNtRp172
ag9
(I1201219200000000000
NNtRp173
ag9
(I1203638400000000000
NNtRp174
ag9
(I1205280000000000000
NNtRp175
ag9
(I1226102400000000000
NNtRp176
ag9
(I1230768000000000000
NNtRp177
ag9
(I1232668800000000000
NNtRp178
ag9
(I1237593600000000000
NNtRp179
ag9
(I1243987200000000000
NNtRp180
ag9
(I1256169600000000000
NNtRp181
ag9
(I1261267200000000000
NNtRp182
ag9
(I1261785600000000000
NNtRp183
ag9
(I1263168000000000000
NNtRp184
ag9
(I1263686400000000000
NNtRp185
ag9
(I1264291200000000000
NNtRp186
ag9
(I1265068800000000000
NNtRp187
ag9
(I1269388800000000000
NNtRp188
ag9
(I1270944000000000000
NNtRp189
ag9
(I1271635200000000000
NNtRp190
ag9
(I1273363200000000000
NNtRp191
ag9
(I1274054400000000000
NNtRp192
ag9
(I1275436800000000000
NNtRp193
ag9
(I1277596800000000000
NNtRp194
ag9
(I1289001600000000000
NNtRp195
ag9
(I1291161600000000000
NNtRp196
ag9
(I1294790400000000000
NNtRp197
ag9
(I1296259200000000000
NNtRp198
ag9
(I1297555200000000000
NNtRp199
ag9
(I1302566400000000000
NNtRp200
ag9
(I1318118400000000000
NNtRp201
ag9
(I1327968000000000000
NNtRp202
ag9
(I1330300800000000000
NNtRp203
ag9
(I1331337600000000000
NNtRp204
ag9
(I1332288000000000000
NNtRp205
ag9
(I1332720000000000000
NNtRp206
ag9
(I1335312000000000000
NNtRp207
ag9
(I1335916800000000000
NNtRp208
ag9
(I1353974400000000000
NNtRp209
ag9
(I1355529600000000000
NNtRp210
ag9
(I1357689600000000000
NNtRp211
ag9
(I1360108800000000000
NNtRp212
ag9
(I1363651200000000000
NNtRp213
ag9
(I1364601600000000000
NNtRp214
ag9
(I1381276800000000000
NNtRp215
ag9
(I1386201600000000000
NNtRp216
ag9
(I1392249600000000000
NNtRp217
ag9
(I1393372800000000000
NNtRp218
ag9
(I1394323200000000000
NNtRp219
ag9
(I1395619200000000000
NNtRp220
ag9
(I1398297600000000000
NNtRp221
ag9
(I1414627200000000000
NNtRp222
ag9
(I1417132800000000000
NNtRp223
atbtp224
sV11477000
p225
(g3
(g4
(I0
tS'b'
tRp226
(I1
(I94
tg7
I00
(lp227
g9
(I948844800000000000
NNtRp228
ag9
(I949795200000000000
NNtRp229
ag9
(I956016000000000000
NNtRp230
ag9
(I958521600000000000
NNtRp231
ag9
(I972950400000000000
NNtRp232
ag9
(I975628800000000000
NNtRp233
ag9
(I981936000000000000
NNtRp234
ag9
(I983923200000000000
NNtRp235
ag9
(I1006646400000000000
NNtRp236
ag9
(I1007596800000000000
NNtRp237
ag9
(I1009065600000000000
NNtRp238
ag9
(I1012089600000000000
NNtRp239
ag9
(I1015804800000000000
NNtRp240
ag9
(I1036972800000000000
NNtRp241
ag9
(I1039996800000000000
NNtRp242
ag9
(I1040428800000000000
NNtRp243
ag9
(I1041292800000000000
NNtRp244
ag9
(I1042502400000000000
NNtRp245
ag9
(I1048723200000000000
NNtRp246
ag9
(I1050537600000000000
NNtRp247
ag9
(I1051660800000000000
NNtRp248
ag9
(I1071360000000000000
NNtRp249
ag9
(I1072310400000000000
NNtRp250
ag9
(I1073001600000000000
NNtRp251
ag9
(I1073692800000000000
NNtRp252
ag9
(I1075248000000000000
NNtRp253
ag9
(I1077062400000000000
NNtRp254
ag9
(I1080432000000000000
NNtRp255
ag9
(I1082592000000000000
NNtRp256
ag9
(I1106870400000000000
NNtRp257
ag9
(I1113004800000000000
NNtRp258
ag9
(I1115683200000000000
NNtRp259
ag9
(I1116460800000000000
NNtRp260
ag9
(I1118361600000000000
NNtRp261
ag9
(I1119139200000000000
NNtRp262
ag9
(I1131408000000000000
NNtRp263
ag9
(I1133481600000000000
NNtRp264
ag9
(I1135987200000000000
NNtRp265
ag9
(I1138838400000000000
NNtRp266
ag9
(I1142553600000000000
NNtRp267
ag9
(I1144108800000000000
NNtRp268
ag9
(I1164672000000000000
NNtRp269
ag9
(I1167177600000000000
NNtRp270
ag9
(I1167955200000000000
NNtRp271
ag9
(I1171152000000000000
NNtRp272
ag9
(I1175040000000000000
NNtRp273
ag9
(I1177286400000000000
NNtRp274
ag9
(I1199491200000000000
NNtRp275
ag9
(I1201996800000000000
NNtRp276
ag9
(I1203897600000000000
NNtRp277
ag9
(I1208217600000000000
NNtRp278
ag9
(I1208995200000000000
NNtRp279
ag9
(I1225843200000000000
NNtRp280
ag9
(I1235433600000000000
NNtRp281
ag9
(I1237248000000000000
NNtRp282
ag9
(I1237766400000000000
NNtRp283
ag9
(I1239408000000000000
NNtRp284
ag9
(I1255651200000000000
NNtRp285
ag9
(I1262390400000000000
NNtRp286
ag9
(I1264032000000000000
NNtRp287
ag9
(I1264464000000000000
NNtRp288
ag9
(I1265414400000000000
NNtRp289
ag9
(I1267228800000000000
NNtRp290
ag9
(I1267660800000000000
NNtRp291
ag9
(I1268438400000000000
NNtRp292
ag9
(I1270425600000000000
NNtRp293
ag9
(I1273536000000000000
NNtRp294
ag9
(I1275091200000000000
NNtRp295
ag9
(I1287964800000000000
NNtRp296
ag9
(I1293580800000000000
NNtRp297
ag9
(I1294963200000000000
NNtRp298
ag9
(I1296432000000000000
NNtRp299
ag9
(I1297814400000000000
NNtRp300
ag9
(I1299456000000000000
NNtRp301
ag9
(I1303171200000000000
NNtRp302
ag9
(I1307404800000000000
NNtRp303
ag9
(I1322179200000000000
NNtRp304
ag9
(I1327276800000000000
NNtRp305
ag9
(I1327622400000000000
NNtRp306
ag9
(I1330646400000000000
NNtRp307
ag9
(I1331942400000000000
NNtRp308
ag9
(I1333238400000000000
NNtRp309
ag9
(I1354665600000000000
NNtRp310
ag9
(I1356480000000000000
NNtRp311
ag9
(I1362614400000000000
NNtRp312
ag9
(I1365465600000000000
NNtRp313
ag9
(I1372464000000000000
NNtRp314
ag9
(I1385164800000000000
NNtRp315
ag9
(I1391990400000000000
NNtRp316
ag9
(I1392595200000000000
NNtRp317
ag9
(I1394496000000000000
NNtRp318
ag9
(I1396310400000000000
NNtRp319
ag9
(I1416700800000000000
NNtRp320
ag9
(I1418342400000000000
NNtRp321
atbg3
(g4
(I0
tS'b'
tRp322
(I1
(I94
tg7
I00
(lp323
g9
(I949104000000000000
NNtRp324
ag9
(I950140800000000000
NNtRp325
ag9
(I956534400000000000
NNtRp326
ag9
(I959126400000000000
NNtRp327
ag9
(I973641600000000000
NNtRp328
ag9
(I976492800000000000
NNtRp329
ag9
(I982281600000000000
NNtRp330
ag9
(I984873600000000000
NNtRp331
ag9
(I1006905600000000000
NNtRp332
ag9
(I1008201600000000000
NNtRp333
ag9
(I1009411200000000000
NNtRp334
ag9
(I1012608000000000000
NNtRp335
ag9
(I1016668800000000000
NNtRp336
ag9
(I1038960000000000000
NNtRp337
ag9
(I1040256000000000000
NNtRp338
ag9
(I1040860800000000000
NNtRp339
ag9
(I1042156800000000000
NNtRp340
ag9
(I1043107200000000000
NNtRp341
ag9
(I1049241600000000000
NNtRp342
ag9
(I1050883200000000000
NNtRp343
ag9
(I1052956800000000000
NNtRp344
ag9
(I1071792000000000000
NNtRp345
ag9
(I1072569600000000000
NNtRp346
ag9
(I1073433600000000000
NNtRp347
ag9
(I1074038400000000000
NNtRp348
ag9
(I1075593600000000000
NNtRp349
ag9
(I1077580800000000000
NNtRp350
ag9
(I1081814400000000000
NNtRp351
ag9
(I1083196800000000000
NNtRp352
ag9
(I1107734400000000000
NNtRp353
ag9
(I1114214400000000000
NNtRp354
ag9
(I1116288000000000000
NNtRp355
ag9
(I1117584000000000000
NNtRp356
ag9
(I1118880000000000000
NNtRp357
ag9
(I1122249600000000000
NNtRp358
ag9
(I1132790400000000000
NNtRp359
ag9
(I1134000000000000000
NNtRp360
ag9
(I1136851200000000000
NNtRp361
ag9
(I1140393600000000000
NNtRp362
ag9
(I1143072000000000000
NNtRp363
ag9
(I1144454400000000000
NNtRp364
ag9
(I1165536000000000000
NNtRp365
ag9
(I1167782400000000000
NNtRp366
ag9
(I1169942400000000000
NNtRp367
ag9
(I1171929600000000000
NNtRp368
ag9
(I1175990400000000000
NNtRp369
ag9
(I1177977600000000000
NNtRp370
ag9
(I1199750400000000000
NNtRp371
ag9
(I1202860800000000000
NNtRp372
ag9
(I1205107200000000000
NNtRp373
ag9
(I1208476800000000000
NNtRp374
ag9
(I1209254400000000000
NNtRp375
ag9
(I1226188800000000000
NNtRp376
ag9
(I1235865600000000000
NNtRp377
ag9
(I1237593600000000000
NNtRp378
ag9
(I1238284800000000000
NNtRp379
ag9
(I1239753600000000000
NNtRp380
ag9
(I1256256000000000000
NNtRp381
ag9
(I1263168000000000000
NNtRp382
ag9
(I1264291200000000000
NNtRp383
ag9
(I1264982400000000000
NNtRp384
ag9
(I1266105600000000000
NNtRp385
ag9
(I1267488000000000000
NNtRp386
ag9
(I1268265600000000000
NNtRp387
ag9
(I1269388800000000000
NNtRp388
ag9
(I1270944000000000000
NNtRp389
ag9
(I1273968000000000000
NNtRp390
ag9
(I1275436800000000000
NNtRp391
ag9
(I1288224000000000000
NNtRp392
ag9
(I1294790400000000000
NNtRp393
ag9
(I1295222400000000000
NNtRp394
ag9
(I1297123200000000000
NNtRp395
ag9
(I1298505600000000000
NNtRp396
ag9
(I1299715200000000000
NNtRp397
ag9
(I1303689600000000000
NNtRp398
ag9
(I1308182400000000000
NNtRp399
ag9
(I1323820800000000000
NNtRp400
ag9
(I1327536000000000000
NNtRp401
ag9
(I1328140800000000000
NNtRp402
ag9
(I1331424000000000000
NNtRp403
ag9
(I1332288000000000000
NNtRp404
ag9
(I1334016000000000000
NNtRp405
ag9
(I1355529600000000000
NNtRp406
ag9
(I1357430400000000000
NNtRp407
ag9
(I1363651200000000000
NNtRp408
ag9
(I1367366400000000000
NNtRp409
ag9
(I1373155200000000000
NNtRp410
ag9
(I1386115200000000000
NNtRp411
ag9
(I1392249600000000000
NNtRp412
ag9
(I1393372800000000000
NNtRp413
ag9
(I1395705600000000000
NNtRp414
ag9
(I1398384000000000000
NNtRp415
ag9
(I1417132800000000000
NNtRp416
ag9
(I1418688000000000000
NNtRp417
atbtp418
s.