ccopy_reg
_reconstructor
p1
(cdjango.http.request
QueryDict
p2
c__builtin__
dict
p3
(dp4
Vconcave_input
p5
(lp6
Von
p7
asVstart_input
p8
(lp9
V2000-01-01
p10
asVstop_input
p11
(lp12
V2015-01-01
p13
asVgages_input
p14
(lp15
V11476500
p16
aV11477000
p17
asVlag_start_input
p18
(lp19
V0
asVantecedent_moisture_input
p20
(lp21
V1
asVcsrfmiddlewaretoken
p22
(lp23
VFaGwcrd5qV3sOuhlpyROzLzhCGlYk0jf
p24
asVanalyze
p25
(lp26
VAnalyze recessions
p27
asVrec_sense_input
p28
(lp29
V1
asVmin_length_input
p30
(lp31
V4
astRp32
(dp33
S'_encoding'
p34
S'utf-8'
p35
sS'_data'
p36
(dp37
g11
g12
sg5
g6
sg8
g9
sg18
g19
sg14
g15
sg20
g21
sg22
g23
sg25
g26
sg28
g29
sg30
g31
ssS'_mutable'
p38
I00
sb.