(dp1
V11477000
p2
(cnumpy.core.multiarray
_reconstruct
p3
(cnumpy
ndarray
p4
(I0
tS'b'
tRp5
(I1
(I93
tcnumpy
dtype
p6
(S'O8'
I0
I1
tRp7
(I3
S'|'
NNNI-1
I-1
I63
tbI00
(lp8
cpandas.tslib
Timestamp
p9
(I948844800000000000
NNtRp10
ag9
(I949795200000000000
NNtRp11
ag9
(I956016000000000000
NNtRp12
ag9
(I958521600000000000
NNtRp13
ag9
(I972950400000000000
NNtRp14
ag9
(I975628800000000000
NNtRp15
ag9
(I981936000000000000
NNtRp16
ag9
(I983923200000000000
NNtRp17
ag9
(I1006646400000000000
NNtRp18
ag9
(I1007596800000000000
NNtRp19
ag9
(I1009065600000000000
NNtRp20
ag9
(I1012089600000000000
NNtRp21
ag9
(I1015804800000000000
NNtRp22
ag9
(I1036972800000000000
NNtRp23
ag9
(I1040428800000000000
NNtRp24
ag9
(I1041292800000000000
NNtRp25
ag9
(I1042502400000000000
NNtRp26
ag9
(I1048723200000000000
NNtRp27
ag9
(I1050537600000000000
NNtRp28
ag9
(I1051660800000000000
NNtRp29
ag9
(I1071360000000000000
NNtRp30
ag9
(I1072310400000000000
NNtRp31
ag9
(I1073001600000000000
NNtRp32
ag9
(I1073692800000000000
NNtRp33
ag9
(I1075248000000000000
NNtRp34
ag9
(I1077062400000000000
NNtRp35
ag9
(I1080432000000000000
NNtRp36
ag9
(I1082592000000000000
NNtRp37
ag9
(I1106870400000000000
NNtRp38
ag9
(I1113004800000000000
NNtRp39
ag9
(I1115683200000000000
NNtRp40
ag9
(I1116460800000000000
NNtRp41
ag9
(I1118361600000000000
NNtRp42
ag9
(I1119139200000000000
NNtRp43
ag9
(I1131408000000000000
NNtRp44
ag9
(I1133481600000000000
NNtRp45
ag9
(I1135987200000000000
NNtRp46
ag9
(I1138838400000000000
NNtRp47
ag9
(I1142553600000000000
NNtRp48
ag9
(I1144108800000000000
NNtRp49
ag9
(I1164672000000000000
NNtRp50
ag9
(I1167177600000000000
NNtRp51
ag9
(I1167955200000000000
NNtRp52
ag9
(I1171152000000000000
NNtRp53
ag9
(I1175040000000000000
NNtRp54
ag9
(I1177286400000000000
NNtRp55
ag9
(I1199491200000000000
NNtRp56
ag9
(I1201996800000000000
NNtRp57
ag9
(I1203897600000000000
NNtRp58
ag9
(I1208217600000000000
NNtRp59
ag9
(I1208995200000000000
NNtRp60
ag9
(I1209513600000000000
NNtRp61
ag9
(I1225843200000000000
NNtRp62
ag9
(I1235433600000000000
NNtRp63
ag9
(I1237248000000000000
NNtRp64
ag9
(I1237766400000000000
NNtRp65
ag9
(I1239408000000000000
NNtRp66
ag9
(I1255651200000000000
NNtRp67
ag9
(I1262390400000000000
NNtRp68
ag9
(I1264032000000000000
NNtRp69
ag9
(I1264464000000000000
NNtRp70
ag9
(I1265414400000000000
NNtRp71
ag9
(I1267228800000000000
NNtRp72
ag9
(I1267660800000000000
NNtRp73
ag9
(I1268438400000000000
NNtRp74
ag9
(I1270425600000000000
NNtRp75
ag9
(I1273536000000000000
NNtRp76
ag9
(I1275091200000000000
NNtRp77
ag9
(I1287964800000000000
NNtRp78
ag9
(I1293580800000000000
NNtRp79
ag9
(I1294963200000000000
NNtRp80
ag9
(I1296432000000000000
NNtRp81
ag9
(I1297814400000000000
NNtRp82
ag9
(I1299456000000000000
NNtRp83
ag9
(I1303171200000000000
NNtRp84
ag9
(I1307404800000000000
NNtRp85
ag9
(I1322179200000000000
NNtRp86
ag9
(I1327276800000000000
NNtRp87
ag9
(I1327622400000000000
NNtRp88
ag9
(I1330646400000000000
NNtRp89
ag9
(I1331942400000000000
NNtRp90
ag9
(I1333238400000000000
NNtRp91
ag9
(I1354665600000000000
NNtRp92
ag9
(I1356480000000000000
NNtRp93
ag9
(I1362614400000000000
NNtRp94
ag9
(I1365465600000000000
NNtRp95
ag9
(I1372464000000000000
NNtRp96
ag9
(I1385164800000000000
NNtRp97
ag9
(I1392595200000000000
NNtRp98
ag9
(I1394496000000000000
NNtRp99
ag9
(I1396310400000000000
NNtRp100
ag9
(I1416700800000000000
NNtRp101
ag9
(I1418342400000000000
NNtRp102
atbg3
(g4
(I0
tS'b'
tRp103
(I1
(I93
tg7
I00
(lp104
g9
(I949104000000000000
NNtRp105
ag9
(I950140800000000000
NNtRp106
ag9
(I956534400000000000
NNtRp107
ag9
(I959126400000000000
NNtRp108
ag9
(I973641600000000000
NNtRp109
ag9
(I976492800000000000
NNtRp110
ag9
(I982281600000000000
NNtRp111
ag9
(I984873600000000000
NNtRp112
ag9
(I1006905600000000000
NNtRp113
ag9
(I1008201600000000000
NNtRp114
ag9
(I1009411200000000000
NNtRp115
ag9
(I1012608000000000000
NNtRp116
ag9
(I1016668800000000000
NNtRp117
ag9
(I1038960000000000000
NNtRp118
ag9
(I1040860800000000000
NNtRp119
ag9
(I1042156800000000000
NNtRp120
ag9
(I1043107200000000000
NNtRp121
ag9
(I1049241600000000000
NNtRp122
ag9
(I1050883200000000000
NNtRp123
ag9
(I1052956800000000000
NNtRp124
ag9
(I1071792000000000000
NNtRp125
ag9
(I1072569600000000000
NNtRp126
ag9
(I1073433600000000000
NNtRp127
ag9
(I1074038400000000000
NNtRp128
ag9
(I1075593600000000000
NNtRp129
ag9
(I1077580800000000000
NNtRp130
ag9
(I1081814400000000000
NNtRp131
ag9
(I1083196800000000000
NNtRp132
ag9
(I1107734400000000000
NNtRp133
ag9
(I1114214400000000000
NNtRp134
ag9
(I1116288000000000000
NNtRp135
ag9
(I1117584000000000000
NNtRp136
ag9
(I1118880000000000000
NNtRp137
ag9
(I1122249600000000000
NNtRp138
ag9
(I1132790400000000000
NNtRp139
ag9
(I1134000000000000000
NNtRp140
ag9
(I1136851200000000000
NNtRp141
ag9
(I1140393600000000000
NNtRp142
ag9
(I1143072000000000000
NNtRp143
ag9
(I1144454400000000000
NNtRp144
ag9
(I1165536000000000000
NNtRp145
ag9
(I1167782400000000000
NNtRp146
ag9
(I1169942400000000000
NNtRp147
ag9
(I1171929600000000000
NNtRp148
ag9
(I1175990400000000000
NNtRp149
ag9
(I1177977600000000000
NNtRp150
ag9
(I1199750400000000000
NNtRp151
ag9
(I1202860800000000000
NNtRp152
ag9
(I1205107200000000000
NNtRp153
ag9
(I1208476800000000000
NNtRp154
ag9
(I1209254400000000000
NNtRp155
ag9
(I1209859200000000000
NNtRp156
ag9
(I1226188800000000000
NNtRp157
ag9
(I1235865600000000000
NNtRp158
ag9
(I1237593600000000000
NNtRp159
ag9
(I1238284800000000000
NNtRp160
ag9
(I1239753600000000000
NNtRp161
ag9
(I1256256000000000000
NNtRp162
ag9
(I1263168000000000000
NNtRp163
ag9
(I1264291200000000000
NNtRp164
ag9
(I1264982400000000000
NNtRp165
ag9
(I1266105600000000000
NNtRp166
ag9
(I1267488000000000000
NNtRp167
ag9
(I1268265600000000000
NNtRp168
ag9
(I1269388800000000000
NNtRp169
ag9
(I1270944000000000000
NNtRp170
ag9
(I1273968000000000000
NNtRp171
ag9
(I1275436800000000000
NNtRp172
ag9
(I1288224000000000000
NNtRp173
ag9
(I1294790400000000000
NNtRp174
ag9
(I1295222400000000000
NNtRp175
ag9
(I1297123200000000000
NNtRp176
ag9
(I1298505600000000000
NNtRp177
ag9
(I1299715200000000000
NNtRp178
ag9
(I1303689600000000000
NNtRp179
ag9
(I1308182400000000000
NNtRp180
ag9
(I1323820800000000000
NNtRp181
ag9
(I1327536000000000000
NNtRp182
ag9
(I1328140800000000000
NNtRp183
ag9
(I1331424000000000000
NNtRp184
ag9
(I1332288000000000000
NNtRp185
ag9
(I1334016000000000000
NNtRp186
ag9
(I1355529600000000000
NNtRp187
ag9
(I1357430400000000000
NNtRp188
ag9
(I1363651200000000000
NNtRp189
ag9
(I1367366400000000000
NNtRp190
ag9
(I1373155200000000000
NNtRp191
ag9
(I1386115200000000000
NNtRp192
ag9
(I1393372800000000000
NNtRp193
ag9
(I1395705600000000000
NNtRp194
ag9
(I1398384000000000000
NNtRp195
ag9
(I1417132800000000000
NNtRp196
ag9
(I1418688000000000000
NNtRp197
atbtp198
s.