ccopy_reg
_reconstructor
p1
(cdjango.http.request
QueryDict
p2
c__builtin__
dict
p3
(dp4
Vnonlinear_fitting_input
p5
(lp6
Von
p7
asVstart_input
p8
(lp9
V2000-01-01
p10
asVstop_input
p11
(lp12
V2015-01-01
p13
asVgages_input
p14
(lp15
V11477000
p16
asVsubmit_button
p17
(lp18
VAnalyze recessions
p19
asVlag_start_input
p20
(lp21
V0
asVantecedent_moisture_input
p22
(lp23
V1
asVcsrfmiddlewaretoken
p24
(lp25
VFaGwcrd5qV3sOuhlpyROzLzhCGlYk0jf
p26
asVrec_sense_input
p27
(lp28
V1
asVmin_length_input
p29
(lp30
V4
astRp31
(dp32
S'_encoding'
p33
S'utf-8'
p34
sS'_data'
p35
(dp36
g11
g12
sg5
g6
sg8
g9
sg20
g21
sg14
g15
sg17
g18
sg22
g23
sg24
g25
sg27
g28
sg29
g30
ssS'_mutable'
p37
I00
sb.